target datalayout = "e-m:e-p270:32:32-p271:32:32-p272:64:64-i64:64-i128:128-f80:128-n8:16:32:64-S128"
target triple = "x86_64-pc-linux-gnu"

@luaB_collectgarbage.opts = internal constant [8 x ptr] [ptr @.str.35, ptr @.str.36, ptr @.str.37, ptr @.str.38, ptr @.str.39, ptr @.str.40, ptr @.str.41, ptr null], align 16
@.str.37 = private unnamed_addr constant [8 x i8] c"collect\00", align 1
@luaB_collectgarbage.optsnum = internal constant [7 x i32] [i32 0, i32 1, i32 2, i32 3, i32 5, i32 6, i32 7], align 16

; Function Attrs: nounwind uwtable
define internal i32 @luaB_collectgarbage(ptr noundef %0) #0 {
  %2 = alloca i32, align 4
  %3 = alloca ptr, align 8
  %4 = alloca i32, align 4
  %5 = alloca i32, align 4
  %6 = alloca i32, align 4
  %7 = alloca i32, align 4
  %8 = alloca i32, align 4
  store ptr %0, ptr %3, align 8, !tbaa !4
  call void @llvm.lifetime.start.p0(i64 4, ptr %4) #5
  %9 = load ptr, ptr %3, align 8, !tbaa !4
  %10 = call i32 @luaL_checkoption(ptr noundef %9, i32 noundef 1, ptr noundef @.str.37, ptr noundef @luaB_collectgarbage.opts)
  store i32 %10, ptr %4, align 4, !tbaa !12
  call void @llvm.lifetime.start.p0(i64 4, ptr %5) #5
  %11 = load ptr, ptr %3, align 8, !tbaa !4
  %12 = call i64 @luaL_optinteger(ptr noundef %11, i32 noundef 2, i64 noundef 0)
  %13 = trunc i64 %12 to i32
  store i32 %13, ptr %5, align 4, !tbaa !12
  call void @llvm.lifetime.start.p0(i64 4, ptr %6) #5
  %14 = load ptr, ptr %3, align 8, !tbaa !4
  %15 = load i32, ptr %4, align 4, !tbaa !12
  %16 = sext i32 %15 to i64
  %17 = getelementptr inbounds [7 x i32], ptr @luaB_collectgarbage.optsnum, i64 0, i64 %16
  %18 = load i32, ptr %17, align 4, !tbaa !12
  %19 = load i32, ptr %5, align 4, !tbaa !12
  %20 = call i32 @lua_gc(ptr noundef %14, i32 noundef %18, i32 noundef %19)
  store i32 %20, ptr %6, align 4, !tbaa !12
  %21 = load i32, ptr %4, align 4, !tbaa !12
  %22 = sext i32 %21 to i64
  %23 = getelementptr inbounds [7 x i32], ptr @luaB_collectgarbage.optsnum, i64 0, i64 %22
  %24 = load i32, ptr %23, align 4, !tbaa !12
  switch i32 %24, label %38 [
    i32 3, label %25
    i32 5, label %35
  ]

25:                                               ; preds = %1
  call void @llvm.lifetime.start.p0(i64 4, ptr %7) #5
  %26 = load ptr, ptr %3, align 8, !tbaa !4
  %27 = call i32 @lua_gc(ptr noundef %26, i32 noundef 4, i32 noundef 0)
  store i32 %27, ptr %7, align 4, !tbaa !12
  %28 = load ptr, ptr %3, align 8, !tbaa !4
  %29 = load i32, ptr %6, align 4, !tbaa !12
  %30 = sitofp i32 %29 to double
  %31 = load i32, ptr %7, align 4, !tbaa !12
  %32 = sitofp i32 %31 to double
  %33 = fdiv double %32, 1.024000e+03
  %34 = fadd double %30, %33
  call void @lua_pushnumber(ptr noundef %28, double noundef %34)
  store i32 1, ptr %2, align 4
  store i32 1, ptr %8, align 4
  call void @llvm.lifetime.end.p0(i64 4, ptr %7) #5
  br label %42

35:                                               ; preds = %1
  %36 = load ptr, ptr %3, align 8, !tbaa !4
  %37 = load i32, ptr %6, align 4, !tbaa !12
  call void @lua_pushboolean(ptr noundef %36, i32 noundef %37)
  store i32 1, ptr %2, align 4
  store i32 1, ptr %8, align 4
  br label %42

38:                                               ; preds = %1
  %39 = load ptr, ptr %3, align 8, !tbaa !4
  %40 = load i32, ptr %6, align 4, !tbaa !12
  %41 = sitofp i32 %40 to double
  call void @lua_pushnumber(ptr noundef %39, double noundef %41)
  store i32 1, ptr %2, align 4
  store i32 1, ptr %8, align 4
  br label %42

42:                                               ; preds = %38, %35, %25
  call void @llvm.lifetime.end.p0(i64 4, ptr %6) #5
  call void @llvm.lifetime.end.p0(i64 4, ptr %5) #5
  call void @llvm.lifetime.end.p0(i64 4, ptr %4) #5
  %43 = load i32, ptr %2, align 4
  ret i32 %43
}