; Function Attrs: nounwind uwtable
define internal noundef i32 @luaB_collectgarbage(ptr noundef %0) #0 {
  %2 = tail call i32 @luaL_checkoption(ptr noundef %0, i32 noundef 1, ptr noundef nonnull @.str.37, ptr noundef nonnull @luaB_collectgarbage.opts) #8
  %3 = tail call i64 @luaL_optinteger(ptr noundef %0, i32 noundef 2, i64 noundef 0) #8
  %4 = trunc i64 %3 to i32
  %5 = sext i32 %2 to i64
  %6 = getelementptr inbounds [7 x i32], ptr @luaB_collectgarbage.optsnum, i64 0, i64 %5
  %7 = load i32, ptr %6, align 4, !tbaa !4
  %8 = tail call i32 @lua_gc(ptr noundef %0, i32 noundef %7, i32 noundef %4) #8
  switch i32 %7, label %16 [
    i32 3, label %9
    i32 5, label %15
  ]

9:                                                ; preds = %1
  %10 = tail call i32 @lua_gc(ptr noundef %0, i32 noundef 4, i32 noundef 0) #8
  %11 = sitofp i32 %8 to double
  %12 = sitofp i32 %10 to double
  %13 = fmul double %12, 0x3F50000000000000
  %14 = fadd double %13, %11
  tail call void @lua_pushnumber(ptr noundef %0, double noundef %14) #8
  br label %18

15:                                               ; preds = %1
  tail call void @lua_pushboolean(ptr noundef %0, i32 noundef %8) #8
  br label %18

16:                                               ; preds = %1
  %17 = sitofp i32 %8 to double
  tail call void @lua_pushnumber(ptr noundef %0, double noundef %17) #8
  br label %18

18:                                               ; preds = %16, %15, %9
  ret i32 1
}